target datalayout = "e-m:e-p270:32:32-p271:32:32-p272:64:64-i64:64-i128:128-f80:128-n8:16:32:64-S128"
target triple = "x86_64-pc-linux-gnu"

%struct.pcapng_block_header_s = type { i32, i32 }
%struct.pcapng_decryption_secrets_block_s = type { i32, i32 }
%struct.wtapng_dsb_mandatory_s = type { i32, i32, ptr }

; Function Attrs: nounwind uwtable
define internal i32 @pcapng_write_decryption_secrets_block(ptr noundef %0, ptr noundef %1, ptr noundef %2) #0 {
  %4 = alloca i32, align 4
  %5 = alloca ptr, align 8
  %6 = alloca ptr, align 8
  %7 = alloca ptr, align 8
  %8 = alloca %struct.pcapng_block_header_s, align 4
  %9 = alloca %struct.pcapng_decryption_secrets_block_s, align 4
  %10 = alloca ptr, align 8
  %11 = alloca i32, align 4
  %12 = alloca i32, align 4
  store ptr %0, ptr %5, align 8
  store ptr %1, ptr %6, align 8
  store ptr %2, ptr %7, align 8
  %13 = load ptr, ptr %6, align 8
  %14 = call ptr @wtap_block_get_mandatory_data(ptr noundef %13)
  store ptr %14, ptr %10, align 8
  %15 = load ptr, ptr %10, align 8
  %16 = getelementptr inbounds %struct.wtapng_dsb_mandatory_s, ptr %15, i32 0, i32 1
  %17 = load i32, ptr %16, align 4
  %18 = and i32 %17, 3
  %19 = sub i32 4, %18
  %20 = and i32 %19, 3
  store i32 %20, ptr %11, align 4
  %21 = getelementptr inbounds %struct.pcapng_block_header_s, ptr %8, i32 0, i32 0
  store i32 10, ptr %21, align 4
  %22 = load ptr, ptr %10, align 8
  %23 = getelementptr inbounds %struct.wtapng_dsb_mandatory_s, ptr %22, i32 0, i32 1
  %24 = load i32, ptr %23, align 4
  %25 = add i32 20, %24
  %26 = load i32, ptr %11, align 4
  %27 = add i32 %25, %26
  %28 = getelementptr inbounds %struct.pcapng_block_header_s, ptr %8, i32 0, i32 1
  store i32 %27, ptr %28, align 4
  br label %29

29:                                               ; preds = %3
  br label %30

30:                                               ; preds = %29
  %31 = load ptr, ptr %5, align 8
  %32 = load ptr, ptr %7, align 8
  %33 = call i32 @wtap_dump_file_write(ptr noundef %31, ptr noundef %8, i64 noundef 8, ptr noundef %32)
  %34 = icmp ne i32 %33, 0
  br i1 %34, label %36, label %35

35:                                               ; preds = %30
  store i32 0, ptr %4, align 4
  br label %83

36:                                               ; preds = %30
  %37 = load ptr, ptr %10, align 8
  %38 = getelementptr inbounds %struct.wtapng_dsb_mandatory_s, ptr %37, i32 0, i32 0
  %39 = load i32, ptr %38, align 8
  %40 = getelementptr inbounds %struct.pcapng_decryption_secrets_block_s, ptr %9, i32 0, i32 0
  store i32 %39, ptr %40, align 4
  %41 = load ptr, ptr %10, align 8
  %42 = getelementptr inbounds %struct.wtapng_dsb_mandatory_s, ptr %41, i32 0, i32 1
  %43 = load i32, ptr %42, align 4
  %44 = getelementptr inbounds %struct.pcapng_decryption_secrets_block_s, ptr %9, i32 0, i32 1
  store i32 %43, ptr %44, align 4
  %45 = load ptr, ptr %5, align 8
  %46 = load ptr, ptr %7, align 8
  %47 = call i32 @wtap_dump_file_write(ptr noundef %45, ptr noundef %9, i64 noundef 8, ptr noundef %46)
  %48 = icmp ne i32 %47, 0
  br i1 %48, label %50, label %49

49:                                               ; preds = %36
  store i32 0, ptr %4, align 4
  br label %83

50:                                               ; preds = %36
  %51 = load ptr, ptr %5, align 8
  %52 = load ptr, ptr %10, align 8
  %53 = getelementptr inbounds %struct.wtapng_dsb_mandatory_s, ptr %52, i32 0, i32 2
  %54 = load ptr, ptr %53, align 8
  %55 = load ptr, ptr %10, align 8
  %56 = getelementptr inbounds %struct.wtapng_dsb_mandatory_s, ptr %55, i32 0, i32 1
  %57 = load i32, ptr %56, align 4
  %58 = zext i32 %57 to i64
  %59 = load ptr, ptr %7, align 8
  %60 = call i32 @wtap_dump_file_write(ptr noundef %51, ptr noundef %54, i64 noundef %58, ptr noundef %59)
  %61 = icmp ne i32 %60, 0
  br i1 %61, label %63, label %62

62:                                               ; preds = %50
  store i32 0, ptr %4, align 4
  br label %83

63:                                               ; preds = %50
  %64 = load i32, ptr %11, align 4
  %65 = icmp ne i32 %64, 0
  br i1 %65, label %66, label %75

66:                                               ; preds = %63
  store i32 0, ptr %12, align 4
  %67 = load ptr, ptr %5, align 8
  %68 = load i32, ptr %11, align 4
  %69 = zext i32 %68 to i64
  %70 = load ptr, ptr %7, align 8
  %71 = call i32 @wtap_dump_file_write(ptr noundef %67, ptr noundef %12, i64 noundef %69, ptr noundef %70)
  %72 = icmp ne i32 %71, 0
  br i1 %72, label %74, label %73

73:                                               ; preds = %66
  store i32 0, ptr %4, align 4
  br label %83

74:                                               ; preds = %66
  br label %75

75:                                               ; preds = %74, %63
  %76 = load ptr, ptr %5, align 8
  %77 = getelementptr inbounds %struct.pcapng_block_header_s, ptr %8, i32 0, i32 1
  %78 = load ptr, ptr %7, align 8
  %79 = call i32 @wtap_dump_file_write(ptr noundef %76, ptr noundef %77, i64 noundef 4, ptr noundef %78)
  %80 = icmp ne i32 %79, 0
  br i1 %80, label %82, label %81

81:                                               ; preds = %75
  store i32 0, ptr %4, align 4
  br label %83

82:                                               ; preds = %75
  store i32 1, ptr %4, align 4
  br label %83

83:                                               ; preds = %82, %81, %73, %62, %49, %35
  %84 = load i32, ptr %4, align 4
  ret i32 %84
}