; Function Attrs: nounwind uwtable
define internal fastcc range(i32 0, 2) i32 @pcapng_write_decryption_secrets_block(ptr noundef %0, ptr noundef %1, ptr noundef %2) unnamed_addr #0 {
  %4 = alloca %struct.pcapng_block_header_s, align 4
  %5 = alloca %struct.pcapng_decryption_secrets_block_s, align 4
  %6 = alloca i32, align 4
  %7 = tail call ptr @wtap_block_get_mandatory_data(ptr noundef %1) #16
  %8 = getelementptr inbounds nuw i8, ptr %7, i64 4
  %9 = load i32, ptr %8, align 4
  %10 = sub i32 0, %9
  %11 = and i32 %10, 3
  store i32 10, ptr %4, align 4
  %12 = add i32 %9, 20
  %13 = add i32 %12, %11
  %14 = getelementptr inbounds nuw i8, ptr %4, i64 4
  store i32 %13, ptr %14, align 4
  %15 = call i32 @wtap_dump_file_write(ptr noundef %0, ptr noundef nonnull %4, i64 noundef 8, ptr noundef %2) #16
  %.not = icmp eq i32 %15, 0
  br i1 %.not, label %33, label %16

16:                                               ; preds = %3
  %17 = load i32, ptr %7, align 8
  store i32 %17, ptr %5, align 4
  %18 = load i32, ptr %8, align 4
  %19 = getelementptr inbounds nuw i8, ptr %5, i64 4
  store i32 %18, ptr %19, align 4
  %20 = call i32 @wtap_dump_file_write(ptr noundef %0, ptr noundef nonnull %5, i64 noundef 8, ptr noundef %2) #16
  %.not21 = icmp eq i32 %20, 0
  br i1 %.not21, label %33, label %21

21:                                               ; preds = %16
  %22 = getelementptr inbounds nuw i8, ptr %7, i64 8
  %23 = load ptr, ptr %22, align 8
  %24 = load i32, ptr %8, align 4
  %25 = zext i32 %24 to i64
  %26 = call i32 @wtap_dump_file_write(ptr noundef %0, ptr noundef %23, i64 noundef %25, ptr noundef %2) #16
  %.not22 = icmp eq i32 %26, 0
  br i1 %.not22, label %33, label %27

27:                                               ; preds = %21
  %.not23 = icmp eq i32 %11, 0
  br i1 %.not23, label %31, label %28

28:                                               ; preds = %27
  store i32 0, ptr %6, align 4
  %29 = zext nneg i32 %11 to i64
  %30 = call i32 @wtap_dump_file_write(ptr noundef %0, ptr noundef nonnull %6, i64 noundef %29, ptr noundef %2) #16
  %.not24 = icmp eq i32 %30, 0
  br i1 %.not24, label %33, label %31

31:                                               ; preds = %28, %27
  %32 = call i32 @wtap_dump_file_write(ptr noundef %0, ptr noundef nonnull %14, i64 noundef 4, ptr noundef %2) #16
  %.not25 = icmp ne i32 %32, 0
  %. = zext i1 %.not25 to i32
  br label %33

33:                                               ; preds = %31, %28, %21, %16, %3
  %.0 = phi i32 [ 0, %3 ], [ 0, %16 ], [ 0, %21 ], [ 0, %28 ], [ %., %31 ]
  ret i32 %.0
}